target datalayout = "e-m:e-p270:32:32-p271:32:32-p272:64:64-i64:64-i128:128-f80:128-n8:16:32:64-S128"
target triple = "x86_64-pc-linux-gnu"

@LimitedVectorCallClass_spec = internal global { ptr, i32, i32, i32, [4 x i8], ptr } { ptr @.str.7, i32 24, i32 0, i32 3072, [4 x i8] zeroinitializer, ptr @LimitedVectorallClass_slots }, align 8
@LimitedRelativeVectorCallClass_spec = internal global { ptr, i32, i32, i32, [4 x i8], ptr } { ptr @.str.14, i32 -8, i32 0, i32 2048, [4 x i8] zeroinitializer, ptr @.compoundliteral.15 }, align 8

; Function Attrs: inlinehint nounwind uwtable
define internal void @Py_DECREF(ptr noundef %0) #3 {
  %2 = alloca ptr, align 8
  store ptr %0, ptr %2, align 8, !tbaa !3
  %3 = load ptr, ptr %2, align 8, !tbaa !3
  call void @_Py_DecRef(ptr noundef %3)
  ret void
}

; Function Attrs: nounwind uwtable
define hidden i32 @_PyTestLimitedCAPI_Init_VectorcallLimited(ptr noundef %0) #0 {
  %2 = alloca i32, align 4
  %3 = alloca ptr, align 8
  %4 = alloca ptr, align 8
  %5 = alloca i32, align 4
  %6 = alloca ptr, align 8
  store ptr %0, ptr %3, align 8, !tbaa !3
  %7 = load ptr, ptr %3, align 8, !tbaa !3
  %8 = call i32 @PyModule_AddFunctions(ptr noundef %7, ptr noundef @TestMethods)
  %9 = icmp slt i32 %8, 0
  br i1 %9, label %10, label %11

10:                                               ; preds = %1
  store i32 -1, ptr %2, align 4
  br label %40

11:                                               ; preds = %1
  call void @llvm.lifetime.start.p0(i64 8, ptr %4) #5
  %12 = load ptr, ptr %3, align 8, !tbaa !3
  %13 = call ptr @PyType_FromModuleAndSpec(ptr noundef %12, ptr noundef @LimitedVectorCallClass_spec, ptr noundef null)
  store ptr %13, ptr %4, align 8, !tbaa !3
  %14 = load ptr, ptr %4, align 8, !tbaa !3
  %15 = icmp ne ptr %14, null
  br i1 %15, label %17, label %16

16:                                               ; preds = %11
  store i32 -1, ptr %2, align 4
  store i32 1, ptr %5, align 4
  br label %39

17:                                               ; preds = %11
  %18 = load ptr, ptr %3, align 8, !tbaa !3
  %19 = load ptr, ptr %4, align 8, !tbaa !3
  %20 = call i32 @PyModule_AddType(ptr noundef %18, ptr noundef %19)
  %21 = icmp slt i32 %20, 0
  br i1 %21, label %22, label %23

22:                                               ; preds = %17
  store i32 -1, ptr %2, align 4
  store i32 1, ptr %5, align 4
  br label %39

23:                                               ; preds = %17
  %24 = load ptr, ptr %4, align 8, !tbaa !3
  call void @Py_DECREF(ptr noundef %24)
  call void @llvm.lifetime.start.p0(i64 8, ptr %6) #5
  %25 = load ptr, ptr %3, align 8, !tbaa !3
  %26 = call ptr @PyType_FromModuleAndSpec(ptr noundef %25, ptr noundef @LimitedRelativeVectorCallClass_spec, ptr noundef null)
  store ptr %26, ptr %6, align 8, !tbaa !3
  %27 = load ptr, ptr %6, align 8, !tbaa !3
  %28 = icmp ne ptr %27, null
  br i1 %28, label %30, label %29

29:                                               ; preds = %23
  store i32 -1, ptr %2, align 4
  store i32 1, ptr %5, align 4
  br label %38

30:                                               ; preds = %23
  %31 = load ptr, ptr %3, align 8, !tbaa !3
  %32 = load ptr, ptr %6, align 8, !tbaa !3
  %33 = call i32 @PyModule_AddType(ptr noundef %31, ptr noundef %32)
  %34 = icmp slt i32 %33, 0
  br i1 %34, label %35, label %36

35:                                               ; preds = %30
  store i32 -1, ptr %2, align 4
  store i32 1, ptr %5, align 4
  br label %38

36:                                               ; preds = %30
  %37 = load ptr, ptr %6, align 8, !tbaa !3
  call void @Py_DECREF(ptr noundef %37)
  store i32 0, ptr %2, align 4
  store i32 1, ptr %5, align 4
  br label %38

38:                                               ; preds = %36, %35, %29
  call void @llvm.lifetime.end.p0(i64 8, ptr %6) #5
  br label %39

39:                                               ; preds = %38, %22, %16
  call void @llvm.lifetime.end.p0(i64 8, ptr %4) #5
  br label %40

40:                                               ; preds = %39, %10
  %41 = load i32, ptr %2, align 4
  ret i32 %41
}