; Function Attrs: nounwind uwtable
define hidden range(i32 -1, 1) i32 @_PyTestLimitedCAPI_Init_VectorcallLimited(ptr noundef %0) local_unnamed_addr #0 {
  %2 = tail call i32 @PyModule_AddFunctions(ptr noundef %0, ptr noundef nonnull @TestMethods) #4
  %3 = icmp slt i32 %2, 0
  br i1 %3, label %15, label %4

4:                                                ; preds = %1
  %5 = tail call ptr @PyType_FromModuleAndSpec(ptr noundef %0, ptr noundef nonnull @LimitedVectorCallClass_spec, ptr noundef null) #4
  %.not = icmp eq ptr %5, null
  br i1 %.not, label %15, label %6

6:                                                ; preds = %4
  %7 = tail call i32 @PyModule_AddType(ptr noundef %0, ptr noundef nonnull %5) #4
  %8 = icmp slt i32 %7, 0
  br i1 %8, label %15, label %9

9:                                                ; preds = %6
  tail call void @_Py_DecRef(ptr noundef nonnull %5) #4
  %10 = tail call ptr @PyType_FromModuleAndSpec(ptr noundef %0, ptr noundef nonnull @LimitedRelativeVectorCallClass_spec, ptr noundef null) #4
  %.not13 = icmp eq ptr %10, null
  br i1 %.not13, label %15, label %11

11:                                               ; preds = %9
  %12 = tail call i32 @PyModule_AddType(ptr noundef %0, ptr noundef nonnull %10) #4
  %13 = icmp slt i32 %12, 0
  br i1 %13, label %15, label %14

14:                                               ; preds = %11
  tail call void @_Py_DecRef(ptr noundef nonnull %10) #4
  br label %15

15:                                               ; preds = %4, %6, %11, %9, %14, %1
  %.0 = phi i32 [ -1, %1 ], [ -1, %4 ], [ -1, %6 ], [ 0, %14 ], [ -1, %9 ], [ -1, %11 ]
  ret i32 %.0
}